; Function Attrs: mustprogress uwtable
define hidden noundef zeroext i1 @_ZN12mpbq_manager9lt_1div2kERK4mpbqj(ptr noundef nonnull align 8 dereferenceable(208) %0, ptr noundef nonnull align 8 dereferenceable(20) %1, i32 noundef %2) local_unnamed_addr #3 align 2 {
  %4 = load i32, ptr %1, align 8, !tbaa !3
  %5 = icmp slt i32 %4, 1
  br i1 %5, label %_ZN11mpz_managerILb0EE2ltERK3mpzS3_.exit, label %6

6:                                                ; preds = %3
  %7 = getelementptr inbounds nuw i8, ptr %1, i64 16
  %8 = load i32, ptr %7, align 8, !tbaa !13
  %.not = icmp ugt i32 %8, %2
  br i1 %.not, label %_ZN11mpz_managerILb0EE5mul2kERK3mpzjRS1_.exit, label %_ZN11mpz_managerILb0EE2ltERK3mpzS3_.exit

_ZN11mpz_managerILb0EE5mul2kERK3mpzjRS1_.exit:    ; preds = %6
  %9 = load ptr, ptr %0, align 8, !tbaa !26
  %10 = sub nuw i32 %8, %2
  %11 = getelementptr inbounds nuw i8, ptr %0, i64 8
  store i32 1, ptr %11, align 8, !tbaa !3
  %12 = getelementptr inbounds nuw i8, ptr %0, i64 12
  %13 = load i8, ptr %12, align 4
  %14 = and i8 %13, -2
  store i8 %14, ptr %12, align 4
  tail call void @_ZN11mpz_managerILb0EE5mul2kER3mpzj(ptr noundef nonnull align 8 dereferenceable(600) %9, ptr noundef nonnull align 8 dereferenceable(16) %11, i32 noundef %10)
  %15 = load ptr, ptr %0, align 8, !tbaa !26
  %16 = getelementptr inbounds nuw i8, ptr %1, i64 4
  %17 = load i8, ptr %16, align 4
  %18 = and i8 %17, 1
  %19 = icmp eq i8 %18, 0
  br i1 %19, label %20, label %28

20:                                               ; preds = %_ZN11mpz_managerILb0EE5mul2kERK3mpzjRS1_.exit
  %21 = load i8, ptr %12, align 4
  %22 = and i8 %21, 1
  %23 = icmp eq i8 %22, 0
  br i1 %23, label %24, label %28

24:                                               ; preds = %20
  %25 = load i32, ptr %1, align 8, !tbaa !3
  %26 = load i32, ptr %11, align 8, !tbaa !3
  %27 = icmp slt i32 %25, %26
  br label %_ZN11mpz_managerILb0EE2ltERK3mpzS3_.exit

28:                                               ; preds = %20, %_ZN11mpz_managerILb0EE5mul2kERK3mpzjRS1_.exit
  %29 = tail call noundef i32 @_ZN11mpz_managerILb0EE11big_compareERK3mpzS3_(ptr noundef nonnull align 8 dereferenceable(600) %15, ptr noundef nonnull align 8 dereferenceable(16) %1, ptr noundef nonnull align 8 dereferenceable(16) %11)
  %30 = icmp slt i32 %29, 0
  br label %_ZN11mpz_managerILb0EE2ltERK3mpzS3_.exit

_ZN11mpz_managerILb0EE2ltERK3mpzS3_.exit:         ; preds = %28, %24, %6, %3
  %.0 = phi i1 [ true, %3 ], [ false, %6 ], [ %27, %24 ], [ %30, %28 ]
  ret i1 %.0
}